; ModuleID = '21/2086.c'
source_filename = "21/2086.c"
target datalayout = "e-m:e-p270:32:32-p271:32:32-p272:64:64-i64:64-f80:128-n8:16:32:64-S128"
target triple = "x86_64-pc-linux-gnu"

@.str = private unnamed_addr constant [3 x i8] c"%d\00", align 1
@.str.1 = private unnamed_addr constant [4 x i8] c",%d\00", align 1

; Function Attrs: noinline nounwind uwtable
define dso_local void @main() #0 {
  %1 = alloca i32, align 4
  %2 = alloca i32, align 4
  %3 = alloca i32, align 4
  %4 = alloca i32, align 4
  %5 = alloca i32, align 4
  %6 = alloca i32, align 4
  %7 = alloca i32, align 4
  %8 = alloca i32, align 4
  %9 = alloca [300 x i32], align 16
  %10 = alloca i32, align 4
  %11 = alloca [20 x i32], align 16
  %12 = call i32 (i8*, ...) @__isoc99_scanf(i8* getelementptr inbounds ([3 x i8], [3 x i8]* @.str, i64 0, i64 0), i32* %1)
  store i32 0, i32* %2, align 4
  br label %13

13:                                               ; preds = %22, %0
  %14 = load i32, i32* %2, align 4
  %15 = load i32, i32* %1, align 4
  %16 = icmp slt i32 %14, %15
  br i1 %16, label %17, label %25

17:                                               ; preds = %13
  %18 = load i32, i32* %2, align 4
  %19 = sext i32 %18 to i64
  %20 = getelementptr inbounds [300 x i32], [300 x i32]* %9, i64 0, i64 %19
  %21 = call i32 (i8*, ...) @__isoc99_scanf(i8* getelementptr inbounds ([3 x i8], [3 x i8]* @.str, i64 0, i64 0), i32* %20)
  br label %22

22:                                               ; preds = %17
  %23 = load i32, i32* %2, align 4
  %24 = add nsw i32 %23, 1
  store i32 %24, i32* %2, align 4
  br label %13

25:                                               ; preds = %13
  %26 = getelementptr inbounds [300 x i32], [300 x i32]* %9, i64 0, i64 0
  %27 = load i32, i32* %26, align 16
  store i32 %27, i32* %7, align 4
  %28 = getelementptr inbounds [300 x i32], [300 x i32]* %9, i64 0, i64 0
  %29 = load i32, i32* %28, align 16
  store i32 %29, i32* %6, align 4
  %30 = getelementptr inbounds [300 x i32], [300 x i32]* %9, i64 0, i64 0
  %31 = load i32, i32* %30, align 16
  store i32 %31, i32* %10, align 4
  store i32 1, i32* %2, align 4
  br label %32

32:                                               ; preds = %67, %25
  %33 = load i32, i32* %2, align 4
  %34 = load i32, i32* %1, align 4
  %35 = icmp slt i32 %33, %34
  br i1 %35, label %36, label %70

36:                                               ; preds = %32
  %37 = load i32, i32* %10, align 4
  %38 = load i32, i32* %2, align 4
  %39 = sext i32 %38 to i64
  %40 = getelementptr inbounds [300 x i32], [300 x i32]* %9, i64 0, i64 %39
  %41 = load i32, i32* %40, align 4
  %42 = add nsw i32 %37, %41
  store i32 %42, i32* %10, align 4
  %43 = load i32, i32* %2, align 4
  %44 = sext i32 %43 to i64
  %45 = getelementptr inbounds [300 x i32], [300 x i32]* %9, i64 0, i64 %44
  %46 = load i32, i32* %45, align 4
  %47 = load i32, i32* %6, align 4
  %48 = icmp sgt i32 %46, %47
  br i1 %48, label %49, label %54

49:                                               ; preds = %36
  %50 = load i32, i32* %2, align 4
  %51 = sext i32 %50 to i64
  %52 = getelementptr inbounds [300 x i32], [300 x i32]* %9, i64 0, i64 %51
  %53 = load i32, i32* %52, align 4
  store i32 %53, i32* %6, align 4
  br label %54

54:                                               ; preds = %49, %36
  %55 = load i32, i32* %2, align 4
  %56 = sext i32 %55 to i64
  %57 = getelementptr inbounds [300 x i32], [300 x i32]* %9, i64 0, i64 %56
  %58 = load i32, i32* %57, align 4
  %59 = load i32, i32* %7, align 4
  %60 = icmp slt i32 %58, %59
  br i1 %60, label %61, label %66

61:                                               ; preds = %54
  %62 = load i32, i32* %2, align 4
  %63 = sext i32 %62 to i64
  %64 = getelementptr inbounds [300 x i32], [300 x i32]* %9, i64 0, i64 %63
  %65 = load i32, i32* %64, align 4
  store i32 %65, i32* %7, align 4
  br label %66

66:                                               ; preds = %61, %54
  br label %67

67:                                               ; preds = %66
  %68 = load i32, i32* %2, align 4
  %69 = add nsw i32 %68, 1
  store i32 %69, i32* %2, align 4
  br label %32

70:                                               ; preds = %32
  %71 = load i32, i32* %7, align 4
  %72 = load i32, i32* %1, align 4
  %73 = mul nsw i32 %71, %72
  store i32 %73, i32* %7, align 4
  %74 = load i32, i32* %6, align 4
  %75 = load i32, i32* %1, align 4
  %76 = mul nsw i32 %74, %75
  store i32 %76, i32* %6, align 4
  %77 = load i32, i32* %6, align 4
  %78 = load i32, i32* %10, align 4
  %79 = sub nsw i32 %77, %78
  %80 = load i32, i32* %10, align 4
  %81 = load i32, i32* %7, align 4
  %82 = sub nsw i32 %80, %81
  %83 = icmp sgt i32 %79, %82
  br i1 %83, label %84, label %88

84:                                               ; preds = %70
  %85 = load i32, i32* %6, align 4
  %86 = load i32, i32* %10, align 4
  %87 = sub nsw i32 %85, %86
  br label %92

88:                                               ; preds = %70
  %89 = load i32, i32* %10, align 4
  %90 = load i32, i32* %7, align 4
  %91 = sub nsw i32 %89, %90
  br label %92

92:                                               ; preds = %88, %84
  %93 = phi i32 [ %87, %84 ], [ %91, %88 ]
  store i32 %93, i32* %8, align 4
  store i32 0, i32* %3, align 4
  store i32 0, i32* %2, align 4
  br label %94

94:                                               ; preds = %132, %92
  %95 = load i32, i32* %2, align 4
  %96 = load i32, i32* %1, align 4
  %97 = icmp slt i32 %95, %96
  br i1 %97, label %98, label %135

98:                                               ; preds = %94
  %99 = load i32, i32* %2, align 4
  %100 = sext i32 %99 to i64
  %101 = getelementptr inbounds [300 x i32], [300 x i32]* %9, i64 0, i64 %100
  %102 = load i32, i32* %101, align 4
  %103 = load i32, i32* %1, align 4
  %104 = mul nsw i32 %102, %103
  %105 = load i32, i32* %10, align 4
  %106 = sub nsw i32 %104, %105
  %107 = load i32, i32* %8, align 4
  %108 = icmp eq i32 %106, %107
  br i1 %108, label %121, label %109

109:                                              ; preds = %98
  %110 = load i32, i32* %2, align 4
  %111 = sext i32 %110 to i64
  %112 = getelementptr inbounds [300 x i32], [300 x i32]* %9, i64 0, i64 %111
  %113 = load i32, i32* %112, align 4
  %114 = load i32, i32* %1, align 4
  %115 = mul nsw i32 %113, %114
  %116 = load i32, i32* %10, align 4
  %117 = sub nsw i32 %115, %116
  %118 = load i32, i32* %8, align 4
  %119 = sub nsw i32 0, %118
  %120 = icmp eq i32 %117, %119
  br i1 %120, label %121, label %131

121:                                              ; preds = %109, %98
  %122 = load i32, i32* %2, align 4
  %123 = sext i32 %122 to i64
  %124 = getelementptr inbounds [300 x i32], [300 x i32]* %9, i64 0, i64 %123
  %125 = load i32, i32* %124, align 4
  %126 = load i32, i32* %3, align 4
  %127 = sext i32 %126 to i64
  %128 = getelementptr inbounds [20 x i32], [20 x i32]* %11, i64 0, i64 %127
  store i32 %125, i32* %128, align 4
  %129 = load i32, i32* %3, align 4
  %130 = add nsw i32 %129, 1
  store i32 %130, i32* %3, align 4
  br label %131

131:                                              ; preds = %121, %109
  br label %132

132:                                              ; preds = %131
  %133 = load i32, i32* %2, align 4
  %134 = add nsw i32 %133, 1
  store i32 %134, i32* %2, align 4
  br label %94

135:                                              ; preds = %94
  store i32 0, i32* %2, align 4
  br label %136

136:                                              ; preds = %178, %135
  %137 = load i32, i32* %2, align 4
  %138 = load i32, i32* %3, align 4
  %139 = icmp slt i32 %137, %138
  br i1 %139, label %140, label %181

140:                                              ; preds = %136
  %141 = load i32, i32* %2, align 4
  %142 = add nsw i32 %141, 1
  store i32 %142, i32* %4, align 4
  br label %143

143:                                              ; preds = %174, %140
  %144 = load i32, i32* %4, align 4
  %145 = load i32, i32* %3, align 4
  %146 = icmp slt i32 %144, %145
  br i1 %146, label %147, label %177

147:                                              ; preds = %143
  %148 = load i32, i32* %4, align 4
  %149 = sext i32 %148 to i64
  %150 = getelementptr inbounds [20 x i32], [20 x i32]* %11, i64 0, i64 %149
  %151 = load i32, i32* %150, align 4
  %152 = load i32, i32* %2, align 4
  %153 = sext i32 %152 to i64
  %154 = getelementptr inbounds [20 x i32], [20 x i32]* %11, i64 0, i64 %153
  %155 = load i32, i32* %154, align 4
  %156 = icmp slt i32 %151, %155
  br i1 %156, label %157, label %173

157:                                              ; preds = %147
  %158 = load i32, i32* %2, align 4
  %159 = sext i32 %158 to i64
  %160 = getelementptr inbounds [20 x i32], [20 x i32]* %11, i64 0, i64 %159
  %161 = load i32, i32* %160, align 4
  store i32 %161, i32* %5, align 4
  %162 = load i32, i32* %4, align 4
  %163 = sext i32 %162 to i64
  %164 = getelementptr inbounds [20 x i32], [20 x i32]* %11, i64 0, i64 %163
  %165 = load i32, i32* %164, align 4
  %166 = load i32, i32* %2, align 4
  %167 = sext i32 %166 to i64
  %168 = getelementptr inbounds [20 x i32], [20 x i32]* %11, i64 0, i64 %167
  store i32 %165, i32* %168, align 4
  %169 = load i32, i32* %5, align 4
  %170 = load i32, i32* %4, align 4
  %171 = sext i32 %170 to i64
  %172 = getelementptr inbounds [20 x i32], [20 x i32]* %11, i64 0, i64 %171
  store i32 %169, i32* %172, align 4
  br label %173

173:                                              ; preds = %157, %147
  br label %174

174:                                              ; preds = %173
  %175 = load i32, i32* %4, align 4
  %176 = add nsw i32 %175, 1
  store i32 %176, i32* %4, align 4
  br label %143

177:                                              ; preds = %143
  br label %178

178:                                              ; preds = %177
  %179 = load i32, i32* %2, align 4
  %180 = add nsw i32 %179, 1
  store i32 %180, i32* %2, align 4
  br label %136

181:                                              ; preds = %136
  %182 = getelementptr inbounds [20 x i32], [20 x i32]* %11, i64 0, i64 0
  %183 = load i32, i32* %182, align 16
  %184 = call i32 (i8*, ...) @printf(i8* getelementptr inbounds ([3 x i8], [3 x i8]* @.str, i64 0, i64 0), i32 %183)
  store i32 1, i32* %2, align 4
  br label %185

185:                                              ; preds = %195, %181
  %186 = load i32, i32* %2, align 4
  %187 = load i32, i32* %3, align 4
  %188 = icmp slt i32 %186, %187
  br i1 %188, label %189, label %198

189:                                              ; preds = %185
  %190 = load i32, i32* %2, align 4
  %191 = sext i32 %190 to i64
  %192 = getelementptr inbounds [20 x i32], [20 x i32]* %11, i64 0, i64 %191
  %193 = load i32, i32* %192, align 4
  %194 = call i32 (i8*, ...) @printf(i8* getelementptr inbounds ([4 x i8], [4 x i8]* @.str.1, i64 0, i64 0), i32 %193)
  br label %195

195:                                              ; preds = %189
  %196 = load i32, i32* %2, align 4
  %197 = add nsw i32 %196, 1
  store i32 %197, i32* %2, align 4
  br label %185

198:                                              ; preds = %185
  ret void
}

declare dso_local i32 @__isoc99_scanf(i8*, ...) #1

declare dso_local i32 @printf(i8*, ...) #1


!llvm.module.flags = !{!0}
!llvm.ident = !{!1}

!0 = !{i32 1, !"wchar_size", i32 4}
!1 = !{!"clang version 10.0.0-4ubuntu1 "}
